; Function Attrs: mustprogress nofree norecurse nosync nounwind memory(write, argmem: readwrite, inaccessiblemem: none) uwtable
define dso_local void @_ZN8b3FillCL11executeHostER20b3AlignedObjectArrayI6b3Int2ERKS1_ii(ptr noundef nonnull readnone align 8 captures(none) dereferenceable(48) %0, ptr noundef nonnull readonly align 8 captures(none) dereferenceable(25) %1, ptr noundef nonnull readonly align 4 captures(none) dereferenceable(8) %2, i32 noundef %3, i32 noundef %4) local_unnamed_addr #8 align 2 {
  %6 = icmp sgt i32 %3, 0
  br i1 %6, label %.lr.ph, label %._crit_edge

.lr.ph:                                           ; preds = %5
  %7 = getelementptr inbounds nuw i8, ptr %1, i64 16
  %8 = sext i32 %4 to i64
  %wide.trip.count = zext nneg i32 %3 to i64
  br label %9

._crit_edge:                                      ; preds = %9, %5
  ret void

9:                                                ; preds = %.lr.ph, %9
  %indvars.iv = phi i64 [ 0, %.lr.ph ], [ %indvars.iv.next, %9 ]
  %10 = load ptr, ptr %7, align 8, !tbaa !59
  %11 = getelementptr %struct.b3Int2, ptr %10, i64 %indvars.iv
  %12 = getelementptr %struct.b3Int2, ptr %11, i64 %8
  %13 = load i64, ptr %2, align 4, !tbaa !44
  store i64 %13, ptr %12, align 4, !tbaa !44
  %indvars.iv.next = add nuw nsw i64 %indvars.iv, 1
  %exitcond.not = icmp eq i64 %indvars.iv.next, %wide.trip.count
  br i1 %exitcond.not, label %._crit_edge, label %9, !llvm.loop !63
}